target datalayout = "e-m:e-p270:32:32-p271:32:32-p272:64:64-i64:64-i128:128-f80:128-n8:16:32:64-S128"
target triple = "x86_64-pc-linux-gnu"

%"class.icu_77::VTZReader" = type <{ ptr, i32, [4 x i8] }>

@_ZN6icu_779VTZReaderC1ERKNS_13UnicodeStringE = unnamed_addr alias void (ptr, ptr), ptr @_ZN6icu_779VTZReaderC2ERKNS_13UnicodeStringE
@_ZN6icu_779VTZReaderD1Ev = unnamed_addr alias void (ptr), ptr @_ZN6icu_779VTZReaderD2Ev
@_ZN6icu_779VTimeZoneC1Ev = unnamed_addr alias void (ptr), ptr @_ZN6icu_779VTimeZoneC2Ev

; Function Attrs: inlinehint mustprogress nounwind uwtable
define internal noundef signext i8 @_ZL9U_FAILURE10UErrorCode(i32 noundef %0) #3 {
  %2 = alloca i32, align 4
  store i32 %0, ptr %2, align 4, !tbaa !45
  %3 = load i32, ptr %2, align 4, !tbaa !45
  %4 = icmp sgt i32 %3, 0
  %5 = zext i1 %4 to i8
  ret i8 %5
}

; Function Attrs: mustprogress uwtable
define noundef ptr @_ZN6icu_779VTimeZone15createVTimeZoneERKNS_13UnicodeStringER10UErrorCode(ptr noundef nonnull align 8 dereferenceable(64) %0, ptr noundef nonnull align 4 dereferenceable(4) %1) #1 align 2 personality ptr @__gxx_personality_v0 {
  %3 = alloca ptr, align 8
  %4 = alloca ptr, align 8
  %5 = alloca ptr, align 8
  %6 = alloca %"class.icu_77::VTZReader", align 8
  %7 = alloca ptr, align 8
  %8 = alloca ptr, align 8
  %9 = alloca i1, align 1
  %10 = alloca ptr, align 8
  %11 = alloca i32, align 4
  %12 = alloca i32, align 4
  store ptr %0, ptr %4, align 8, !tbaa !8
  store ptr %1, ptr %5, align 8, !tbaa !55
  %13 = load ptr, ptr %5, align 8, !tbaa !55
  %14 = load i32, ptr %13, align 4, !tbaa !45
  %15 = call noundef signext i8 @_ZL9U_FAILURE10UErrorCode(i32 noundef %14)
  %16 = icmp ne i8 %15, 0
  br i1 %16, label %17, label %18

17:                                               ; preds = %2
  store ptr null, ptr %3, align 8
  br label %63

18:                                               ; preds = %2
  call void @llvm.lifetime.start.p0(i64 16, ptr %6) #11
  %19 = load ptr, ptr %4, align 8, !tbaa !8
  call void @_ZN6icu_779VTZReaderC1ERKNS_13UnicodeStringE(ptr noundef nonnull align 8 dereferenceable(12) %6, ptr noundef nonnull align 8 dereferenceable(64) %19)
  call void @llvm.lifetime.start.p0(i64 8, ptr %7) #11
  %20 = call noundef ptr @_ZN6icu_777UMemorynwEm(i64 noundef 288) #11
  %21 = icmp eq ptr %20, null
  store i1 false, ptr %9, align 1
  br i1 %21, label %24, label %22

22:                                               ; preds = %18
  store ptr %20, ptr %8, align 8
  store i1 true, ptr %9, align 1
  invoke void @_ZN6icu_779VTimeZoneC1Ev(ptr noundef nonnull align 8 dereferenceable(288) %20)
          to label %23 unwind label %30

23:                                               ; preds = %22
  br label %24

24:                                               ; preds = %23, %18
  %25 = phi ptr [ %20, %23 ], [ null, %18 ]
  store ptr %25, ptr %7, align 8, !tbaa !29
  %26 = load ptr, ptr %7, align 8, !tbaa !29
  %27 = icmp eq ptr %26, null
  br i1 %27, label %28, label %38

28:                                               ; preds = %24
  %29 = load ptr, ptr %5, align 8, !tbaa !55
  store i32 7, ptr %29, align 4, !tbaa !45
  store ptr null, ptr %3, align 8
  store i32 1, ptr %12, align 4
  br label %61

30:                                               ; preds = %22
  %31 = landingpad { ptr, i32 }
          cleanup
  %32 = extractvalue { ptr, i32 } %31, 0
  store ptr %32, ptr %10, align 8
  %33 = extractvalue { ptr, i32 } %31, 1
  store i32 %33, ptr %11, align 4
  %34 = load i1, ptr %9, align 1
  br i1 %34, label %35, label %37

35:                                               ; preds = %30
  %36 = load ptr, ptr %8, align 8
  call void @_ZN6icu_777UMemorydlEPv(ptr noundef %36) #11
  br label %37

37:                                               ; preds = %35, %30
  br label %62

38:                                               ; preds = %24
  %39 = load ptr, ptr %7, align 8, !tbaa !29
  %40 = load ptr, ptr %5, align 8, !tbaa !55
  invoke void @_ZN6icu_779VTimeZone4loadERNS_9VTZReaderER10UErrorCode(ptr noundef nonnull align 8 dereferenceable(288) %39, ptr noundef nonnull align 8 dereferenceable(12) %6, ptr noundef nonnull align 4 dereferenceable(4) %40)
          to label %41 unwind label %55

41:                                               ; preds = %38
  %42 = load ptr, ptr %5, align 8, !tbaa !55
  %43 = load i32, ptr %42, align 4, !tbaa !45
  %44 = invoke noundef signext i8 @_ZL9U_FAILURE10UErrorCode(i32 noundef %43)
          to label %45 unwind label %55

45:                                               ; preds = %41
  %46 = icmp ne i8 %44, 0
  br i1 %46, label %47, label %59

47:                                               ; preds = %45
  %48 = load ptr, ptr %7, align 8, !tbaa !29
  %49 = icmp eq ptr %48, null
  br i1 %49, label %54, label %50

50:                                               ; preds = %47
  %51 = load ptr, ptr %48, align 8, !tbaa !31
  %52 = getelementptr inbounds ptr, ptr %51, i64 1
  %53 = load ptr, ptr %52, align 8
  call void %53(ptr noundef nonnull align 8 dereferenceable(288) %48) #11
  br label %54

54:                                               ; preds = %50, %47
  store ptr null, ptr %3, align 8
  store i32 1, ptr %12, align 4
  br label %61

55:                                               ; preds = %41, %38
  %56 = landingpad { ptr, i32 }
          cleanup
  %57 = extractvalue { ptr, i32 } %56, 0
  store ptr %57, ptr %10, align 8
  %58 = extractvalue { ptr, i32 } %56, 1
  store i32 %58, ptr %11, align 4
  br label %62

59:                                               ; preds = %45
  %60 = load ptr, ptr %7, align 8, !tbaa !29
  store ptr %60, ptr %3, align 8
  store i32 1, ptr %12, align 4
  br label %61

61:                                               ; preds = %59, %54, %28
  call void @llvm.lifetime.end.p0(i64 8, ptr %7) #11
  call void @_ZN6icu_779VTZReaderD1Ev(ptr noundef nonnull align 8 dereferenceable(12) %6) #11
  call void @llvm.lifetime.end.p0(i64 16, ptr %6) #11
  br label %63

62:                                               ; preds = %55, %37
  call void @llvm.lifetime.end.p0(i64 8, ptr %7) #11
  call void @_ZN6icu_779VTZReaderD1Ev(ptr noundef nonnull align 8 dereferenceable(12) %6) #11
  call void @llvm.lifetime.end.p0(i64 16, ptr %6) #11
  br label %65

63:                                               ; preds = %61, %17
  %64 = load ptr, ptr %3, align 8
  ret ptr %64

65:                                               ; preds = %62
  %66 = load ptr, ptr %10, align 8
  %67 = load i32, ptr %11, align 4
  %68 = insertvalue { ptr, i32 } poison, ptr %66, 0
  %69 = insertvalue { ptr, i32 } %68, i32 %67, 1
  resume { ptr, i32 } %69
}