; Function Attrs: mustprogress uwtable
define noundef ptr @_ZN6icu_779VTimeZone15createVTimeZoneERKNS_13UnicodeStringER10UErrorCode(ptr noundef nonnull align 8 dereferenceable(64) %0, ptr noundef nonnull align 4 dereferenceable(4) %1) local_unnamed_addr #2 align 2 personality ptr @__gxx_personality_v0 {
  %3 = alloca %"class.icu_77::VTZReader", align 8
  %4 = load i32, ptr %1, align 4, !tbaa !31
  %5 = icmp slt i32 %4, 1
  br i1 %5, label %6, label %25

6:                                                ; preds = %2
  call void @llvm.lifetime.start.p0(i64 16, ptr nonnull %3) #16
  call void @_ZN6icu_779VTZReaderC1ERKNS_13UnicodeStringE(ptr noundef nonnull align 8 dereferenceable(12) %3, ptr noundef nonnull align 8 dereferenceable(64) %0)
  %7 = call noundef ptr @_ZN6icu_777UMemorynwEm(i64 noundef 288) #16
  %8 = icmp eq ptr %7, null
  br i1 %8, label %10, label %9

9:                                                ; preds = %6
  invoke void @_ZN6icu_779VTimeZoneC1Ev(ptr noundef nonnull align 8 dereferenceable(288) %7)
          to label %13 unwind label %11

10:                                               ; preds = %6
  store i32 7, ptr %1, align 4, !tbaa !31
  br label %23

11:                                               ; preds = %9
  %12 = landingpad { ptr, i32 }
          cleanup
  call void @_ZN6icu_777UMemorydlEPv(ptr noundef nonnull %7) #16
  br label %24

13:                                               ; preds = %9
  invoke void @_ZN6icu_779VTimeZone4loadERNS_9VTZReaderER10UErrorCode(ptr noundef nonnull align 8 dereferenceable(288) %7, ptr noundef nonnull align 8 dereferenceable(12) %3, ptr noundef nonnull align 4 dereferenceable(4) %1)
          to label %14 unwind label %21

14:                                               ; preds = %13
  %15 = load i32, ptr %1, align 4, !tbaa !31
  %16 = icmp slt i32 %15, 1
  br i1 %16, label %23, label %17

17:                                               ; preds = %14
  %18 = load ptr, ptr %7, align 8, !tbaa !17
  %19 = getelementptr inbounds nuw i8, ptr %18, i64 8
  %20 = load ptr, ptr %19, align 8
  call void %20(ptr noundef nonnull align 8 dereferenceable(288) %7) #16
  br label %23

21:                                               ; preds = %13
  %22 = landingpad { ptr, i32 }
          cleanup
  br label %24

23:                                               ; preds = %14, %17, %10
  %.1 = phi ptr [ null, %10 ], [ null, %17 ], [ %7, %14 ]
  call void @_ZN6icu_779VTZReaderD1Ev(ptr noundef nonnull align 8 dereferenceable(12) %3) #16
  call void @llvm.lifetime.end.p0(i64 16, ptr nonnull %3) #16
  br label %25

24:                                               ; preds = %11, %21
  %.pn = phi { ptr, i32 } [ %22, %21 ], [ %12, %11 ]
  call void @_ZN6icu_779VTZReaderD1Ev(ptr noundef nonnull align 8 dereferenceable(12) %3) #16
  call void @llvm.lifetime.end.p0(i64 16, ptr nonnull %3) #16
  resume { ptr, i32 } %.pn

25:                                               ; preds = %2, %23
  %.014 = phi ptr [ %.1, %23 ], [ null, %2 ]
  ret ptr %.014
}